; Function Attrs: mustprogress uwtable
define void @_ZN6icu_7514SearchIterator7setTextERKNS_13UnicodeStringER10UErrorCode(ptr noundef nonnull align 8 dereferenceable(88) %this, ptr noundef nonnull align 8 dereferenceable(64) %text, ptr nocapture noundef nonnull align 4 dereferenceable(4) %status) unnamed_addr #0 align 2 {
entry:
  %0 = load i32, ptr %status, align 4
  %cmp.i = icmp sgt i32 %0, 0
  br i1 %cmp.i, label %if.end11, label %if.then

if.then:                                          ; preds = %entry
  %fUnion.i.i = getelementptr inbounds i8, ptr %text, i64 8
  %1 = load i16, ptr %fUnion.i.i, align 8
  %cmp.i.i = icmp slt i16 %1, 0
  %2 = ashr i16 %1, 5
  %shr.i.i = sext i16 %2 to i32
  %fLength.i = getelementptr inbounds i8, ptr %text, i64 12
  %3 = load i32, ptr %fLength.i, align 4
  %cond.i = select i1 %cmp.i.i, i32 %3, i32 %shr.i.i
  %cmp = icmp eq i32 %cond.i, 0
  br i1 %cmp, label %if.then3, label %if.else

if.then3:                                         ; preds = %if.then
  store i32 1, ptr %status, align 4
  br label %if.end11

if.else:                                          ; preds = %if.then
  %m_text_ = getelementptr inbounds i8, ptr %this, i64 24
  %call4 = tail call noundef nonnull align 8 dereferenceable(64) ptr @_ZN6icu_7513UnicodeStringaSERKS0_(ptr noundef nonnull align 8 dereferenceable(64) %m_text_, ptr noundef nonnull align 8 dereferenceable(64) %text)
  %fUnion.i = getelementptr inbounds i8, ptr %this, i64 32
  %4 = load i16, ptr %fUnion.i, align 8
  %conv1.i = zext i16 %4 to i32
  %and.i = and i32 %conv1.i, 17
  %tobool.not.i = icmp eq i32 %and.i, 0
  br i1 %tobool.not.i, label %if.else.i, label %_ZNK6icu_7513UnicodeString9getBufferEv.exit

if.else.i:                                        ; preds = %if.else
  %and5.i = and i32 %conv1.i, 2
  %tobool6.not.i = icmp eq i32 %and5.i, 0
  br i1 %tobool6.not.i, label %if.else9.i, label %if.then7.i

if.then7.i:                                       ; preds = %if.else.i
  %fBuffer.i = getelementptr inbounds i8, ptr %this, i64 34
  br label %_ZNK6icu_7513UnicodeString9getBufferEv.exit

if.else9.i:                                       ; preds = %if.else.i
  %fArray.i = getelementptr inbounds i8, ptr %this, i64 48
  %5 = load ptr, ptr %fArray.i, align 8
  br label %_ZNK6icu_7513UnicodeString9getBufferEv.exit

_ZNK6icu_7513UnicodeString9getBufferEv.exit:      ; preds = %if.else, %if.then7.i, %if.else9.i
  %retval.0.i = phi ptr [ %fBuffer.i, %if.then7.i ], [ %5, %if.else9.i ], [ null, %if.else ]
  %m_search_ = getelementptr inbounds i8, ptr %this, i64 8
  %6 = load ptr, ptr %m_search_, align 8
  store ptr %retval.0.i, ptr %6, align 8
  %7 = load i16, ptr %fUnion.i, align 8
  %cmp.i.i4 = icmp slt i16 %7, 0
  %8 = ashr i16 %7, 5
  %shr.i.i5 = sext i16 %8 to i32
  %fLength.i6 = getelementptr inbounds i8, ptr %this, i64 36
  %9 = load i32, ptr %fLength.i6, align 4
  %cond.i7 = select i1 %cmp.i.i4, i32 %9, i32 %shr.i.i5
  %10 = load ptr, ptr %m_search_, align 8
  %textLength = getelementptr inbounds i8, ptr %10, i64 8
  store i32 %cond.i7, ptr %textLength, align 8
  br label %if.end11

if.end11:                                         ; preds = %if.then3, %_ZNK6icu_7513UnicodeString9getBufferEv.exit, %entry
  ret void
}